; Function Attrs: nounwind uwtable
define internal fastcc range(i32 0, 2) i32 @keygen_ml_dsa_real_key_helper(ptr noundef captures(none) %0, ptr noundef captures(none) %1, ptr noundef %2) unnamed_addr #1 {
switch.lookup:
  %3 = load ptr, ptr %0, align 8, !tbaa !11
  %.0.copyload.i25.i = load i16, ptr %3, align 1
  %4 = getelementptr inbounds nuw i8, ptr %3, i64 2
  store ptr %4, ptr %0, align 8, !tbaa !11
  %5 = load i64, ptr %1, align 8, !tbaa !9
  %6 = add i64 %5, -2
  store i64 %6, ptr %1, align 8, !tbaa !9
  %7 = urem i16 %.0.copyload.i25.i, 3
  %8 = zext nneg i16 %7 to i64
  %switch.gep = getelementptr inbounds nuw [3 x ptr], ptr @switch.table.keygen_ml_dsa_real_key_helper, i64 0, i64 %8
  %switch.load = load ptr, ptr %switch.gep, align 8
  %9 = tail call ptr @EVP_PKEY_CTX_new_from_name(ptr noundef null, ptr noundef nonnull %switch.load, ptr noundef null) #6
  %.not11 = icmp eq ptr %9, null
  br i1 %.not11, label %10, label %13

10:                                               ; preds = %switch.lookup
  %11 = load ptr, ptr @stderr, align 8, !tbaa !16
  %12 = tail call i64 @fwrite(ptr nonnull @.str.17, i64 23, i64 1, ptr %11) #7
  br label %26

13:                                               ; preds = %switch.lookup
  %14 = tail call i32 @EVP_PKEY_keygen_init(ptr noundef nonnull %9) #6
  %.not12 = icmp eq i32 %14, 0
  br i1 %.not12, label %15, label %18

15:                                               ; preds = %13
  %16 = load ptr, ptr @stderr, align 8, !tbaa !16
  %17 = tail call i64 @fwrite(ptr nonnull @.str.18, i64 26, i64 1, ptr %16) #7
  br label %26

18:                                               ; preds = %13
  %19 = tail call ptr @EVP_PKEY_new() #6
  store ptr %19, ptr %2, align 8, !tbaa !18
  %20 = icmp eq ptr %19, null
  br i1 %20, label %26, label %21

21:                                               ; preds = %18
  %22 = tail call i32 @EVP_PKEY_generate(ptr noundef nonnull %9, ptr noundef nonnull %2) #6
  %.not13 = icmp eq i32 %22, 0
  br i1 %.not13, label %23, label %26

23:                                               ; preds = %21
  %24 = load ptr, ptr @stderr, align 8, !tbaa !16
  %25 = tail call i64 @fwrite(ptr nonnull @.str.19, i64 32, i64 1, ptr %24) #7
  br label %26

26:                                               ; preds = %21, %18, %23, %15, %10
  %.0 = phi i32 [ 0, %18 ], [ 0, %23 ], [ 0, %15 ], [ 0, %10 ], [ 1, %21 ]
  tail call void @EVP_PKEY_CTX_free(ptr noundef %9) #6
  ret i32 %.0
}